; Function Attrs: nounwind uwtable
define ptr @l___private_Lean_Elab_Deriving_Inhabited_0__Lean_Elab_mkInhabitedInstanceUsing_addLocalInstancesForParamsAux___rarg___lambda__1(ptr noundef %0, ptr noundef %1, ptr noundef %2, ptr noundef %3, ptr noundef %4, ptr noundef readnone captures(none) %5, ptr noundef %6, ptr noundef %7, ptr noundef %8, ptr noundef %9, ptr noundef %10, ptr noundef %11, ptr noundef %12) local_unnamed_addr #1 {
  %14 = ptrtoint ptr %0 to i64
  %15 = and i64 %14, 1
  %.not = icmp eq i64 %15, 0
  br i1 %.not, label %.critedge.i, label %16, !prof !12

16:                                               ; preds = %13
  %17 = lshr i64 %14, 1
  %18 = add nuw i64 %17, 1
  %19 = icmp sgt i64 %18, -1
  br i1 %19, label %20, label %24, !prof !11

20:                                               ; preds = %16
  %21 = shl nuw i64 %18, 1
  %22 = or disjoint i64 %21, 1
  %23 = inttoptr i64 %22 to ptr
  br label %lean_nat_add.exit

24:                                               ; preds = %16
  %25 = tail call ptr @lean_big_usize_to_nat(i64 noundef range(i64 0, -1) %18) #5
  br label %lean_nat_add.exit

.critedge.i:                                      ; preds = %13
  %26 = tail call ptr @lean_nat_big_add(ptr noundef %0, ptr noundef nonnull inttoptr (i64 3 to ptr)) #5
  br label %lean_nat_add.exit

lean_nat_add.exit:                                ; preds = %24, %20, %.critedge.i
  %.0.i = phi ptr [ %26, %.critedge.i ], [ %23, %20 ], [ %25, %24 ]
  %27 = tail call ptr @l_Lean_Expr_fvarId_x21(ptr noundef %1) #5
  %28 = tail call ptr @l_Lean_RBNode_insert___at_Lean_FVarIdMap_insert___spec__1___rarg(ptr noundef %2, ptr noundef %27, ptr noundef %0) #5
  %29 = tail call ptr @l___private_Lean_Elab_Deriving_Inhabited_0__Lean_Elab_mkInhabitedInstanceUsing_addLocalInstancesForParamsAux___rarg(ptr noundef %3, ptr noundef %4, ptr noundef %.0.i, ptr noundef %28, ptr noundef %6, ptr noundef %7, ptr noundef %8, ptr noundef %9, ptr noundef %10, ptr noundef %11, ptr noundef %12)
  ret ptr %29
}